; Function Attrs: mustprogress nofree norecurse nosync nounwind willreturn memory(readwrite, inaccessiblemem: none) uwtable
define range(i32 0, 3) i32 @ff_vvc_lfnst_idx(ptr noundef readonly captures(none) %0, i32 noundef %1) local_unnamed_addr #2 {
  %3 = getelementptr inbounds nuw i8, ptr %0, i64 4580560
  %4 = load ptr, ptr %3, align 16, !tbaa !67
  %5 = getelementptr inbounds nuw i8, ptr %4, i64 2672
  %6 = getelementptr inbounds nuw i8, ptr %4, i64 400
  %7 = sext i32 %1 to i64
  %8 = getelementptr %struct.VVCCabacState, ptr %6, i64 %7
  %9 = getelementptr i8, ptr %8, i64 618
  %10 = getelementptr inbounds nuw i8, ptr %4, i64 2676
  %11 = load i32, ptr %10, align 4, !tbaa !100
  %12 = ashr i32 %11, 5
  %13 = getelementptr i8, ptr %8, i64 620
  %14 = load i16, ptr %13, align 2, !tbaa !58
  %15 = zext i16 %14 to i32
  %16 = load i16, ptr %9, align 2, !tbaa !58
  %17 = zext i16 %16 to i32
  %18 = shl nuw nsw i32 %17, 4
  %19 = add nuw nsw i32 %18, %15
  %.not.i = icmp samesign ult i32 %19, 16384
  %20 = sub nsw i32 32767, %19
  %21 = select i1 %.not.i, i32 %19, i32 %20
  %22 = ashr i32 %21, 9
  %23 = mul nsw i32 %22, %12
  %24 = ashr i32 %23, 1
  %25 = add nsw i32 %24, 4
  %26 = sub nsw i32 %11, %25
  %27 = shl i32 %26, 17
  %28 = load i32, ptr %5, align 8, !tbaa !70
  %29 = icmp slt i32 %27, %28
  %30 = select i1 %29, i32 %27, i32 0
  %31 = sub nsw i32 %28, %30
  %32 = select i1 %29, i32 %25, i32 %26
  %33 = sext i32 %32 to i64
  %34 = getelementptr inbounds i8, ptr @ff_h264_cabac_tables, i64 %33
  %35 = load i8, ptr %34, align 1, !tbaa !97
  %36 = zext i8 %35 to i32
  %37 = shl i32 %32, %36
  store i32 %37, ptr %10, align 4, !tbaa !100
  %38 = shl i32 %31, %36
  store i32 %38, ptr %5, align 8, !tbaa !70
  %39 = and i32 %38, 65535
  %.not42.i = icmp eq i32 %39, 0
  br i1 %.not42.i, label %40, label %vvc_get_cabac.exit

40:                                               ; preds = %2
  %41 = add nsw i32 %38, -1
  %42 = xor i32 %41, %38
  %43 = lshr i32 %42, 15
  %44 = zext nneg i32 %43 to i64
  %45 = getelementptr inbounds nuw i8, ptr @ff_h264_cabac_tables, i64 %44
  %46 = load i8, ptr %45, align 1, !tbaa !97
  %47 = zext i8 %46 to i32
  %48 = sub nsw i32 7, %47
  %49 = getelementptr inbounds nuw i8, ptr %4, i64 2688
  %50 = load ptr, ptr %49, align 8, !tbaa !68
  %51 = load i8, ptr %50, align 1, !tbaa !97
  %52 = zext i8 %51 to i32
  %53 = shl nuw nsw i32 %52, 9
  %54 = getelementptr inbounds nuw i8, ptr %50, i64 1
  %55 = load i8, ptr %54, align 1, !tbaa !97
  %56 = zext i8 %55 to i32
  %57 = shl nuw nsw i32 %56, 1
  %58 = or disjoint i32 %57, %53
  %59 = add nsw i32 %58, -65535
  %60 = shl nsw i32 %59, %48
  %61 = add i32 %60, %38
  store i32 %61, ptr %5, align 8, !tbaa !70
  %62 = getelementptr inbounds nuw i8, ptr %4, i64 2696
  %63 = load ptr, ptr %62, align 8, !tbaa !71
  %64 = icmp ult ptr %50, %63
  br i1 %64, label %65, label %vvc_get_cabac.exit

65:                                               ; preds = %40
  %66 = getelementptr inbounds nuw i8, ptr %50, i64 2
  store ptr %66, ptr %49, align 8, !tbaa !68
  br label %vvc_get_cabac.exit

vvc_get_cabac.exit:                               ; preds = %2, %40, %65
  %67 = phi i32 [ %38, %2 ], [ %61, %40 ], [ %61, %65 ]
  %68 = lshr i32 %19, 14
  %69 = zext i1 %29 to i32
  %70 = xor i32 %68, %69
  %71 = getelementptr i8, ptr %8, i64 622
  %72 = load i8, ptr %71, align 2, !tbaa !97
  %73 = zext i8 %72 to i32
  %74 = lshr i32 %17, %73
  %75 = sub nsw i32 %17, %74
  %76 = mul nuw nsw i32 %70, 1023
  %77 = lshr i32 %76, %73
  %78 = add nsw i32 %75, %77
  %79 = trunc i32 %78 to i16
  store i16 %79, ptr %9, align 2, !tbaa !58
  %80 = getelementptr i8, ptr %8, i64 623
  %81 = load i8, ptr %80, align 1, !tbaa !97
  %82 = zext i8 %81 to i32
  %83 = lshr i32 %15, %82
  %84 = sub nsw i32 %15, %83
  %85 = mul nuw nsw i32 %70, 16383
  %86 = lshr i32 %85, %82
  %87 = add nsw i32 %84, %86
  %88 = trunc i32 %87 to i16
  store i16 %88, ptr %13, align 2, !tbaa !58
  %.not = icmp eq i32 %68, %69
  br i1 %.not, label %166, label %89

89:                                               ; preds = %vvc_get_cabac.exit
  %90 = getelementptr inbounds nuw i8, ptr %4, i64 1030
  %91 = ashr i32 %37, 5
  %92 = getelementptr inbounds nuw i8, ptr %4, i64 1032
  %93 = load i16, ptr %92, align 2, !tbaa !58
  %94 = zext i16 %93 to i32
  %95 = load i16, ptr %90, align 2, !tbaa !58
  %96 = zext i16 %95 to i32
  %97 = shl nuw nsw i32 %96, 4
  %98 = add nuw nsw i32 %97, %94
  %.not.i6 = icmp samesign ult i32 %98, 16384
  %99 = sub nsw i32 32767, %98
  %100 = select i1 %.not.i6, i32 %98, i32 %99
  %101 = ashr i32 %100, 9
  %102 = mul nsw i32 %101, %91
  %103 = ashr i32 %102, 1
  %104 = add nsw i32 %103, 4
  %105 = sub nsw i32 %37, %104
  %106 = shl i32 %105, 17
  %107 = icmp slt i32 %106, %67
  %108 = select i1 %107, i32 %106, i32 0
  %109 = sub nsw i32 %67, %108
  %110 = select i1 %107, i32 %104, i32 %105
  %111 = sext i32 %110 to i64
  %112 = getelementptr inbounds i8, ptr @ff_h264_cabac_tables, i64 %111
  %113 = load i8, ptr %112, align 1, !tbaa !97
  %114 = zext i8 %113 to i32
  %115 = shl i32 %110, %114
  store i32 %115, ptr %10, align 4, !tbaa !100
  %116 = shl i32 %109, %114
  store i32 %116, ptr %5, align 8, !tbaa !70
  %117 = and i32 %116, 65535
  %.not42.i7 = icmp eq i32 %117, 0
  br i1 %.not42.i7, label %118, label %vvc_get_cabac.exit8

118:                                              ; preds = %89
  %119 = add nsw i32 %116, -1
  %120 = xor i32 %119, %116
  %121 = lshr i32 %120, 15
  %122 = zext nneg i32 %121 to i64
  %123 = getelementptr inbounds nuw i8, ptr @ff_h264_cabac_tables, i64 %122
  %124 = load i8, ptr %123, align 1, !tbaa !97
  %125 = zext i8 %124 to i32
  %126 = sub nsw i32 7, %125
  %127 = getelementptr inbounds nuw i8, ptr %4, i64 2688
  %128 = load ptr, ptr %127, align 8, !tbaa !68
  %129 = load i8, ptr %128, align 1, !tbaa !97
  %130 = zext i8 %129 to i32
  %131 = shl nuw nsw i32 %130, 9
  %132 = getelementptr inbounds nuw i8, ptr %128, i64 1
  %133 = load i8, ptr %132, align 1, !tbaa !97
  %134 = zext i8 %133 to i32
  %135 = shl nuw nsw i32 %134, 1
  %136 = or disjoint i32 %135, %131
  %137 = add nsw i32 %136, -65535
  %138 = shl nsw i32 %137, %126
  %139 = add i32 %138, %116
  store i32 %139, ptr %5, align 8, !tbaa !70
  %140 = getelementptr inbounds nuw i8, ptr %4, i64 2696
  %141 = load ptr, ptr %140, align 8, !tbaa !71
  %142 = icmp ult ptr %128, %141
  br i1 %142, label %143, label %vvc_get_cabac.exit8

143:                                              ; preds = %118
  %144 = getelementptr inbounds nuw i8, ptr %128, i64 2
  store ptr %144, ptr %127, align 8, !tbaa !68
  br label %vvc_get_cabac.exit8

vvc_get_cabac.exit8:                              ; preds = %89, %118, %143
  %145 = lshr i32 %98, 14
  %146 = zext i1 %107 to i32
  %147 = xor i32 %145, %146
  %148 = getelementptr inbounds nuw i8, ptr %4, i64 1034
  %149 = load i8, ptr %148, align 2, !tbaa !97
  %150 = zext i8 %149 to i32
  %151 = lshr i32 %96, %150
  %152 = sub nsw i32 %96, %151
  %153 = mul nuw nsw i32 %147, 1023
  %154 = lshr i32 %153, %150
  %155 = add nsw i32 %152, %154
  %156 = trunc i32 %155 to i16
  store i16 %156, ptr %90, align 2, !tbaa !58
  %157 = getelementptr inbounds nuw i8, ptr %4, i64 1035
  %158 = load i8, ptr %157, align 1, !tbaa !97
  %159 = zext i8 %158 to i32
  %160 = lshr i32 %94, %159
  %161 = sub nsw i32 %94, %160
  %162 = mul nuw nsw i32 %147, 16383
  %163 = lshr i32 %162, %159
  %164 = add nsw i32 %161, %163
  %165 = trunc i32 %164 to i16
  store i16 %165, ptr %92, align 2, !tbaa !58
  %.not5 = icmp eq i32 %145, %146
  %. = select i1 %.not5, i32 1, i32 2
  br label %166

166:                                              ; preds = %vvc_get_cabac.exit8, %vvc_get_cabac.exit
  %.0 = phi i32 [ 0, %vvc_get_cabac.exit ], [ %., %vvc_get_cabac.exit8 ]
  ret i32 %.0
}